target datalayout = "e-m:e-p270:32:32-p271:32:32-p272:64:64-i64:64-i128:128-f80:128-n8:16:32:64-S128"
target triple = "x86_64-pc-linux-gnu"

%struct.SDL_VideoDevice = type { ptr, ptr, ptr, ptr, ptr, ptr, ptr, ptr, ptr, ptr, ptr, ptr, ptr, ptr, ptr, ptr, ptr, ptr, ptr, ptr, ptr, ptr, ptr, ptr, ptr, ptr, ptr, ptr, ptr, ptr, ptr, ptr, ptr, ptr, ptr, ptr, ptr, ptr, ptr, ptr, ptr, ptr, ptr, ptr, ptr, ptr, ptr, ptr, ptr, ptr, ptr, ptr, ptr, ptr, ptr, ptr, ptr, ptr, ptr, ptr, ptr, ptr, ptr, ptr, ptr, ptr, ptr, ptr, ptr, ptr, ptr, ptr, ptr, ptr, ptr, ptr, ptr, ptr, ptr, ptr, ptr, ptr, ptr, ptr, ptr, ptr, ptr, ptr, ptr, ptr, ptr, ptr, ptr, ptr, ptr, ptr, ptr, i64, i8, i8, i8, ptr, i32, ptr, %struct.SDL_Rect, ptr, ptr, i32, ptr, ptr, ptr, ptr, i64, ptr, i8, i32, i32, %struct.anon, ptr, ptr, ptr, ptr, ptr, ptr, %struct.SDL_AtomicInt, %struct.SDL_AtomicInt, i8, %struct.anon.0, ptr, ptr, ptr, ptr, ptr }
%struct.SDL_Rect = type { i32, i32, i32, i32 }
%struct.anon = type { i32, i32, i32, i32, i32, i32, i32, i32, i32, i32, i32, i32, i32, i32, i32, i32, i32, i32, i32, i32, i32, i32, i32, i32, i32, i32, i32, i32, i32, [256 x i8], ptr }
%struct.SDL_AtomicInt = type { i32 }
%struct.anon.0 = type { ptr, ptr, i32, [256 x i8], ptr }
%struct.SDL_EGL_VideoData = type { ptr, ptr, ptr, ptr, i32, i32, i32, i32, i32, i8, i32, ptr, ptr, ptr, ptr, ptr, ptr, ptr, ptr, ptr, ptr, ptr, ptr, ptr, ptr, ptr, ptr, ptr, ptr, ptr, ptr, ptr, ptr, ptr, ptr, ptr, ptr, ptr }

@.str = private unnamed_addr constant [5 x i8] c"0x%x\00", align 1
@.str.1 = private unnamed_addr constant [49 x i8] c"%s (call to %s failed, reporting an error of %s)\00", align 1
@.str.19 = private unnamed_addr constant [20 x i8] c"EGL not initialized\00", align 1
@.str.33 = private unnamed_addr constant [35 x i8] c"Unable to make EGL context current\00", align 1
@.str.34 = private unnamed_addr constant [15 x i8] c"eglMakeCurrent\00", align 1
@.str.47 = private unnamed_addr constant [12 x i8] c"EGL_SUCCESS\00", align 1
@.str.48 = private unnamed_addr constant [20 x i8] c"EGL_NOT_INITIALIZED\00", align 1
@.str.49 = private unnamed_addr constant [15 x i8] c"EGL_BAD_ACCESS\00", align 1
@.str.50 = private unnamed_addr constant [14 x i8] c"EGL_BAD_ALLOC\00", align 1
@.str.51 = private unnamed_addr constant [18 x i8] c"EGL_BAD_ATTRIBUTE\00", align 1
@.str.52 = private unnamed_addr constant [16 x i8] c"EGL_BAD_CONTEXT\00", align 1
@.str.53 = private unnamed_addr constant [15 x i8] c"EGL_BAD_CONFIG\00", align 1
@.str.54 = private unnamed_addr constant [24 x i8] c"EGL_BAD_CURRENT_SURFACE\00", align 1
@.str.55 = private unnamed_addr constant [16 x i8] c"EGL_BAD_DISPLAY\00", align 1
@.str.56 = private unnamed_addr constant [16 x i8] c"EGL_BAD_SURFACE\00", align 1
@.str.57 = private unnamed_addr constant [14 x i8] c"EGL_BAD_MATCH\00", align 1
@.str.58 = private unnamed_addr constant [18 x i8] c"EGL_BAD_PARAMETER\00", align 1
@.str.59 = private unnamed_addr constant [22 x i8] c"EGL_BAD_NATIVE_PIXMAP\00", align 1
@.str.60 = private unnamed_addr constant [22 x i8] c"EGL_BAD_NATIVE_WINDOW\00", align 1
@.str.61 = private unnamed_addr constant [17 x i8] c"EGL_CONTEXT_LOST\00", align 1
@.str.62 = private unnamed_addr constant [1 x i8] zeroinitializer, align 1

; Function Attrs: nounwind uwtable
define internal ptr @SDL_EGL_GetErrorName(i32 noundef %0) #0 {
  %2 = alloca ptr, align 8
  %3 = alloca i32, align 4
  store i32 %0, ptr %3, align 4
  %4 = load i32, ptr %3, align 4
  switch i32 %4, label %20 [
    i32 12288, label %5
    i32 12289, label %6
    i32 12290, label %7
    i32 12291, label %8
    i32 12292, label %9
    i32 12294, label %10
    i32 12293, label %11
    i32 12295, label %12
    i32 12296, label %13
    i32 12301, label %14
    i32 12297, label %15
    i32 12300, label %16
    i32 12298, label %17
    i32 12299, label %18
    i32 12302, label %19
  ]

5:                                                ; preds = %1
  store ptr @.str.47, ptr %2, align 8
  br label %21

6:                                                ; preds = %1
  store ptr @.str.48, ptr %2, align 8
  br label %21

7:                                                ; preds = %1
  store ptr @.str.49, ptr %2, align 8
  br label %21

8:                                                ; preds = %1
  store ptr @.str.50, ptr %2, align 8
  br label %21

9:                                                ; preds = %1
  store ptr @.str.51, ptr %2, align 8
  br label %21

10:                                               ; preds = %1
  store ptr @.str.52, ptr %2, align 8
  br label %21

11:                                               ; preds = %1
  store ptr @.str.53, ptr %2, align 8
  br label %21

12:                                               ; preds = %1
  store ptr @.str.54, ptr %2, align 8
  br label %21

13:                                               ; preds = %1
  store ptr @.str.55, ptr %2, align 8
  br label %21

14:                                               ; preds = %1
  store ptr @.str.56, ptr %2, align 8
  br label %21

15:                                               ; preds = %1
  store ptr @.str.57, ptr %2, align 8
  br label %21

16:                                               ; preds = %1
  store ptr @.str.58, ptr %2, align 8
  br label %21

17:                                               ; preds = %1
  store ptr @.str.59, ptr %2, align 8
  br label %21

18:                                               ; preds = %1
  store ptr @.str.60, ptr %2, align 8
  br label %21

19:                                               ; preds = %1
  store ptr @.str.61, ptr %2, align 8
  br label %21

20:                                               ; preds = %1
  store ptr @.str.62, ptr %2, align 8
  br label %21

21:                                               ; preds = %20, %19, %18, %17, %16, %15, %14, %13, %12, %11, %10, %9, %8, %7, %6, %5
  %22 = load ptr, ptr %2, align 8
  ret ptr %22
}

; Function Attrs: nounwind uwtable
define hidden zeroext i1 @SDL_EGL_SetErrorEx(ptr noundef %0, ptr noundef %1, i32 noundef %2) #0 {
  %4 = alloca ptr, align 8
  %5 = alloca ptr, align 8
  %6 = alloca i32, align 4
  %7 = alloca ptr, align 8
  %8 = alloca [32 x i8], align 16
  store ptr %0, ptr %4, align 8
  store ptr %1, ptr %5, align 8
  store i32 %2, ptr %6, align 4
  call void @llvm.lifetime.start.p0(i64 8, ptr %7) #5
  %9 = load i32, ptr %6, align 4
  %10 = call ptr @SDL_EGL_GetErrorName(i32 noundef %9)
  store ptr %10, ptr %7, align 8
  call void @llvm.lifetime.start.p0(i64 32, ptr %8) #5
  %11 = load ptr, ptr %7, align 8
  %12 = getelementptr inbounds i8, ptr %11, i64 0
  %13 = load i8, ptr %12, align 1
  %14 = sext i8 %13 to i32
  %15 = icmp eq i32 %14, 0
  br i1 %15, label %16, label %21

16:                                               ; preds = %3
  %17 = getelementptr inbounds [32 x i8], ptr %8, i64 0, i64 0
  %18 = load i32, ptr %6, align 4
  %19 = call i32 (ptr, i64, ptr, ...) @SDL_snprintf_REAL(ptr noundef %17, i64 noundef 32, ptr noundef @.str, i32 noundef %18)
  %20 = getelementptr inbounds [32 x i8], ptr %8, i64 0, i64 0
  store ptr %20, ptr %7, align 8
  br label %21

21:                                               ; preds = %16, %3
  %22 = load ptr, ptr %4, align 8
  %23 = load ptr, ptr %5, align 8
  %24 = load ptr, ptr %7, align 8
  %25 = call zeroext i1 (ptr, ...) @SDL_SetError_REAL(ptr noundef @.str.1, ptr noundef %22, ptr noundef %23, ptr noundef %24)
  call void @llvm.lifetime.end.p0(i64 32, ptr %8) #5
  call void @llvm.lifetime.end.p0(i64 8, ptr %7) #5
  ret i1 %25
}

; Function Attrs: nounwind uwtable
define hidden zeroext i1 @SDL_EGL_MakeCurrent(ptr noundef %0, ptr noundef %1, ptr noundef %2) #0 {
  %4 = alloca i1, align 1
  %5 = alloca ptr, align 8
  %6 = alloca ptr, align 8
  %7 = alloca ptr, align 8
  %8 = alloca ptr, align 8
  %9 = alloca i32, align 4
  store ptr %0, ptr %5, align 8
  store ptr %1, ptr %6, align 8
  store ptr %2, ptr %7, align 8
  call void @llvm.lifetime.start.p0(i64 8, ptr %8) #5
  %10 = load ptr, ptr %7, align 8
  store ptr %10, ptr %8, align 8
  %11 = load ptr, ptr %5, align 8
  %12 = getelementptr inbounds nuw %struct.SDL_VideoDevice, ptr %11, i32 0, i32 130
  %13 = load ptr, ptr %12, align 8
  %14 = icmp ne ptr %13, null
  br i1 %14, label %17, label %15

15:                                               ; preds = %3
  %16 = call zeroext i1 (ptr, ...) @SDL_SetError_REAL(ptr noundef @.str.19)
  store i1 %16, ptr %4, align 1
  store i32 1, ptr %9, align 4
  br label %101

17:                                               ; preds = %3
  %18 = load ptr, ptr %5, align 8
  %19 = getelementptr inbounds nuw %struct.SDL_VideoDevice, ptr %18, i32 0, i32 130
  %20 = load ptr, ptr %19, align 8
  %21 = getelementptr inbounds nuw %struct.SDL_EGL_VideoData, ptr %20, i32 0, i32 21
  %22 = load ptr, ptr %21, align 8
  %23 = icmp ne ptr %22, null
  br i1 %23, label %33, label %24

24:                                               ; preds = %17
  %25 = load ptr, ptr %6, align 8
  %26 = icmp ne ptr %25, null
  br i1 %26, label %31, label %27

27:                                               ; preds = %24
  %28 = load ptr, ptr %7, align 8
  %29 = icmp ne ptr %28, null
  br i1 %29, label %31, label %30

30:                                               ; preds = %27
  store i1 true, ptr %4, align 1
  store i32 1, ptr %9, align 4
  br label %101

31:                                               ; preds = %27, %24
  %32 = call zeroext i1 (ptr, ...) @SDL_SetError_REAL(ptr noundef @.str.19)
  store i1 %32, ptr %4, align 1
  store i32 1, ptr %9, align 4
  br label %101

33:                                               ; preds = %17
  %34 = load ptr, ptr %5, align 8
  %35 = getelementptr inbounds nuw %struct.SDL_VideoDevice, ptr %34, i32 0, i32 130
  %36 = load ptr, ptr %35, align 8
  %37 = getelementptr inbounds nuw %struct.SDL_EGL_VideoData, ptr %36, i32 0, i32 28
  %38 = load ptr, ptr %37, align 8
  %39 = icmp ne ptr %38, null
  br i1 %39, label %40, label %52

40:                                               ; preds = %33
  %41 = load ptr, ptr %5, align 8
  %42 = getelementptr inbounds nuw %struct.SDL_VideoDevice, ptr %41, i32 0, i32 130
  %43 = load ptr, ptr %42, align 8
  %44 = getelementptr inbounds nuw %struct.SDL_EGL_VideoData, ptr %43, i32 0, i32 28
  %45 = load ptr, ptr %44, align 8
  %46 = load ptr, ptr %5, align 8
  %47 = getelementptr inbounds nuw %struct.SDL_VideoDevice, ptr %46, i32 0, i32 130
  %48 = load ptr, ptr %47, align 8
  %49 = getelementptr inbounds nuw %struct.SDL_EGL_VideoData, ptr %48, i32 0, i32 10
  %50 = load i32, ptr %49, align 8
  %51 = call i32 %45(i32 noundef %50)
  br label %52

52:                                               ; preds = %40, %33
  %53 = load ptr, ptr %8, align 8
  %54 = icmp ne ptr %53, null
  br i1 %54, label %55, label %63

55:                                               ; preds = %52
  %56 = load ptr, ptr %6, align 8
  %57 = icmp ne ptr %56, null
  br i1 %57, label %75, label %58

58:                                               ; preds = %55
  %59 = load ptr, ptr %5, align 8
  %60 = getelementptr inbounds nuw %struct.SDL_VideoDevice, ptr %59, i32 0, i32 126
  %61 = load i8, ptr %60, align 8, !range !6, !noundef !7
  %62 = trunc i8 %61 to i1
  br i1 %62, label %75, label %63

63:                                               ; preds = %58, %52
  %64 = load ptr, ptr %5, align 8
  %65 = getelementptr inbounds nuw %struct.SDL_VideoDevice, ptr %64, i32 0, i32 130
  %66 = load ptr, ptr %65, align 8
  %67 = getelementptr inbounds nuw %struct.SDL_EGL_VideoData, ptr %66, i32 0, i32 21
  %68 = load ptr, ptr %67, align 8
  %69 = load ptr, ptr %5, align 8
  %70 = getelementptr inbounds nuw %struct.SDL_VideoDevice, ptr %69, i32 0, i32 130
  %71 = load ptr, ptr %70, align 8
  %72 = getelementptr inbounds nuw %struct.SDL_EGL_VideoData, ptr %71, i32 0, i32 2
  %73 = load ptr, ptr %72, align 8
  %74 = call i32 %68(ptr noundef %73, ptr noundef null, ptr noundef null, ptr noundef null)
  br label %100

75:                                               ; preds = %58, %55
  %76 = load ptr, ptr %5, align 8
  %77 = getelementptr inbounds nuw %struct.SDL_VideoDevice, ptr %76, i32 0, i32 130
  %78 = load ptr, ptr %77, align 8
  %79 = getelementptr inbounds nuw %struct.SDL_EGL_VideoData, ptr %78, i32 0, i32 21
  %80 = load ptr, ptr %79, align 8
  %81 = load ptr, ptr %5, align 8
  %82 = getelementptr inbounds nuw %struct.SDL_VideoDevice, ptr %81, i32 0, i32 130
  %83 = load ptr, ptr %82, align 8
  %84 = getelementptr inbounds nuw %struct.SDL_EGL_VideoData, ptr %83, i32 0, i32 2
  %85 = load ptr, ptr %84, align 8
  %86 = load ptr, ptr %6, align 8
  %87 = load ptr, ptr %6, align 8
  %88 = load ptr, ptr %8, align 8
  %89 = call i32 %80(ptr noundef %85, ptr noundef %86, ptr noundef %87, ptr noundef %88)
  %90 = icmp ne i32 %89, 0
  br i1 %90, label %99, label %91

91:                                               ; preds = %75
  %92 = load ptr, ptr %5, align 8
  %93 = getelementptr inbounds nuw %struct.SDL_VideoDevice, ptr %92, i32 0, i32 130
  %94 = load ptr, ptr %93, align 8
  %95 = getelementptr inbounds nuw %struct.SDL_EGL_VideoData, ptr %94, i32 0, i32 29
  %96 = load ptr, ptr %95, align 8
  %97 = call i32 %96()
  %98 = call zeroext i1 @SDL_EGL_SetErrorEx(ptr noundef @.str.33, ptr noundef @.str.34, i32 noundef %97)
  store i1 %98, ptr %4, align 1
  store i32 1, ptr %9, align 4
  br label %101

99:                                               ; preds = %75
  br label %100

100:                                              ; preds = %99, %63
  store i1 true, ptr %4, align 1
  store i32 1, ptr %9, align 4
  br label %101

101:                                              ; preds = %100, %91, %31, %30, %15
  call void @llvm.lifetime.end.p0(i64 8, ptr %8) #5
  %102 = load i1, ptr %4, align 1
  ret i1 %102
}