; Function Attrs: nounwind uwtable
define hidden zeroext i1 @SDL_EGL_MakeCurrent(ptr noundef readonly captures(none) %0, ptr noundef %1, ptr noundef %2) local_unnamed_addr #0 {
  %4 = alloca [32 x i8], align 16
  %5 = getelementptr inbounds nuw i8, ptr %0, i64 1672
  %6 = load ptr, ptr %5, align 8
  %.not = icmp eq ptr %6, null
  br i1 %.not, label %7, label %9

7:                                                ; preds = %3
  %8 = tail call zeroext i1 (ptr, ...) @SDL_SetError_REAL(ptr noundef nonnull @.str.19) #7
  br label %56

9:                                                ; preds = %3
  %10 = getelementptr inbounds nuw i8, ptr %6, i64 144
  %11 = load ptr, ptr %10, align 8
  %.not24 = icmp eq ptr %11, null
  br i1 %.not24, label %12, label %17

12:                                               ; preds = %9
  %13 = icmp ne ptr %1, null
  %14 = icmp ne ptr %2, null
  %or.cond = or i1 %13, %14
  br i1 %or.cond, label %15, label %56

15:                                               ; preds = %12
  %16 = tail call zeroext i1 (ptr, ...) @SDL_SetError_REAL(ptr noundef nonnull @.str.19) #7
  br label %56

17:                                               ; preds = %9
  %18 = getelementptr inbounds nuw i8, ptr %6, i64 200
  %19 = load ptr, ptr %18, align 8
  %.not25 = icmp eq ptr %19, null
  br i1 %.not25, label %24, label %20

20:                                               ; preds = %17
  %21 = getelementptr inbounds nuw i8, ptr %6, i64 56
  %22 = load i32, ptr %21, align 8
  %23 = tail call i32 %19(i32 noundef %22) #7
  br label %24

24:                                               ; preds = %20, %17
  %.not26 = icmp eq ptr %2, null
  br i1 %.not26, label %30, label %25

25:                                               ; preds = %24
  %.not27 = icmp eq ptr %1, null
  br i1 %.not27, label %26, label %37

26:                                               ; preds = %25
  %27 = getelementptr inbounds nuw i8, ptr %0, i64 1360
  %28 = load i8, ptr %27, align 8, !range !7, !noundef !5
  %29 = trunc nuw i8 %28 to i1
  br i1 %29, label %37, label %30

30:                                               ; preds = %26, %24
  %31 = load ptr, ptr %5, align 8
  %32 = getelementptr inbounds nuw i8, ptr %31, i64 144
  %33 = load ptr, ptr %32, align 8
  %34 = getelementptr inbounds nuw i8, ptr %31, i64 16
  %35 = load ptr, ptr %34, align 8
  %36 = tail call i32 %33(ptr noundef %35, ptr noundef null, ptr noundef null, ptr noundef null) #7
  br label %56

37:                                               ; preds = %26, %25
  %38 = load ptr, ptr %5, align 8
  %39 = getelementptr inbounds nuw i8, ptr %38, i64 144
  %40 = load ptr, ptr %39, align 8
  %41 = getelementptr inbounds nuw i8, ptr %38, i64 16
  %42 = load ptr, ptr %41, align 8
  %43 = tail call i32 %40(ptr noundef %42, ptr noundef %1, ptr noundef %1, ptr noundef nonnull %2) #7
  %.not28 = icmp eq i32 %43, 0
  br i1 %.not28, label %44, label %56

44:                                               ; preds = %37
  %45 = load ptr, ptr %5, align 8
  %46 = getelementptr inbounds nuw i8, ptr %45, i64 208
  %47 = load ptr, ptr %46, align 8
  %48 = tail call i32 %47() #7
  %switch.tableidx = add i32 %48, -12288
  %49 = icmp ult i32 %switch.tableidx, 15
  br i1 %49, label %switch.lookup, label %SDL_EGL_GetErrorName.exit.i

switch.lookup:                                    ; preds = %44
  %50 = zext nneg i32 %switch.tableidx to i64
  %switch.gep = getelementptr inbounds nuw [15 x ptr], ptr @switch.table.SDL_EGL_CreateSurface, i64 0, i64 %50
  %switch.load = load ptr, ptr %switch.gep, align 8
  br label %SDL_EGL_GetErrorName.exit.i

SDL_EGL_GetErrorName.exit.i:                      ; preds = %44, %switch.lookup
  %.0.i.i = phi ptr [ %switch.load, %switch.lookup ], [ @.str.62, %44 ]
  call void @llvm.lifetime.start.p0(i64 32, ptr nonnull %4) #7
  %51 = load i8, ptr %.0.i.i, align 1
  %52 = icmp eq i8 %51, 0
  br i1 %52, label %53, label %SDL_EGL_SetErrorEx.exit

53:                                               ; preds = %SDL_EGL_GetErrorName.exit.i
  %54 = call i32 (ptr, i64, ptr, ...) @SDL_snprintf_REAL(ptr noundef nonnull %4, i64 noundef 32, ptr noundef nonnull @.str, i32 noundef %48) #7
  br label %SDL_EGL_SetErrorEx.exit

SDL_EGL_SetErrorEx.exit:                          ; preds = %SDL_EGL_GetErrorName.exit.i, %53
  %.0.i = phi ptr [ %4, %53 ], [ %.0.i.i, %SDL_EGL_GetErrorName.exit.i ]
  %55 = call zeroext i1 (ptr, ...) @SDL_SetError_REAL(ptr noundef nonnull @.str.1, ptr noundef nonnull @.str.33, ptr noundef nonnull @.str.34, ptr noundef nonnull %.0.i) #7
  call void @llvm.lifetime.end.p0(i64 32, ptr nonnull %4) #7
  br label %56

56:                                               ; preds = %30, %37, %12, %SDL_EGL_SetErrorEx.exit, %15, %7
  %.0 = phi i1 [ %55, %SDL_EGL_SetErrorEx.exit ], [ %16, %15 ], [ %8, %7 ], [ true, %12 ], [ true, %37 ], [ true, %30 ]
  ret i1 %.0
}